target datalayout = "e-m:e-p270:32:32-p271:32:32-p272:64:64-i64:64-i128:128-f80:128-n8:16:32:64-S128"
target triple = "x86_64-pc-linux-gnu"

; Function Attrs: mustprogress nounwind uwtable
define noundef i32 @_Z18ufmt_digitvalue_77Ds(i16 noundef zeroext %0) #0 {
  %2 = alloca i32, align 4
  %3 = alloca i16, align 2
  store i16 %0, ptr %3, align 2, !tbaa !3
  %4 = load i16, ptr %3, align 2, !tbaa !3
  %5 = zext i16 %4 to i32
  %6 = icmp sge i32 %5, 48
  br i1 %6, label %7, label %11

7:                                                ; preds = %1
  %8 = load i16, ptr %3, align 2, !tbaa !3
  %9 = zext i16 %8 to i32
  %10 = icmp sle i32 %9, 57
  br i1 %10, label %27, label %11

11:                                               ; preds = %7, %1
  %12 = load i16, ptr %3, align 2, !tbaa !3
  %13 = zext i16 %12 to i32
  %14 = icmp sge i32 %13, 97
  br i1 %14, label %15, label %19

15:                                               ; preds = %11
  %16 = load i16, ptr %3, align 2, !tbaa !3
  %17 = zext i16 %16 to i32
  %18 = icmp sle i32 %17, 122
  br i1 %18, label %27, label %19

19:                                               ; preds = %15, %11
  %20 = load i16, ptr %3, align 2, !tbaa !3
  %21 = zext i16 %20 to i32
  %22 = icmp sge i32 %21, 65
  br i1 %22, label %23, label %43

23:                                               ; preds = %19
  %24 = load i16, ptr %3, align 2, !tbaa !3
  %25 = zext i16 %24 to i32
  %26 = icmp sle i32 %25, 90
  br i1 %26, label %27, label %43

27:                                               ; preds = %23, %15, %7
  %28 = load i16, ptr %3, align 2, !tbaa !3
  %29 = zext i16 %28 to i32
  %30 = sub nsw i32 %29, 48
  %31 = load i16, ptr %3, align 2, !tbaa !3
  %32 = zext i16 %31 to i32
  %33 = icmp sge i32 %32, 65
  br i1 %33, label %34, label %39

34:                                               ; preds = %27
  %35 = load i16, ptr %3, align 2, !tbaa !3
  %36 = zext i16 %35 to i32
  %37 = icmp sge i32 %36, 97
  %38 = select i1 %37, i32 39, i32 7
  br label %40

39:                                               ; preds = %27
  br label %40

40:                                               ; preds = %39, %34
  %41 = phi i32 [ %38, %34 ], [ 0, %39 ]
  %42 = sub nsw i32 %30, %41
  store i32 %42, ptr %2, align 4
  br label %44

43:                                               ; preds = %23, %19
  store i32 -1, ptr %2, align 4
  br label %44

44:                                               ; preds = %43, %40
  %45 = load i32, ptr %2, align 4
  ret i32 %45
}

; Function Attrs: mustprogress nounwind uwtable
define noundef signext i8 @_Z15ufmt_isdigit_77Dsi(i16 noundef zeroext %0, i32 noundef %1) #0 {
  %3 = alloca i16, align 2
  %4 = alloca i32, align 4
  %5 = alloca i32, align 4
  store i16 %0, ptr %3, align 2, !tbaa !3
  store i32 %1, ptr %4, align 4, !tbaa !7
  call void @llvm.lifetime.start.p0(i64 4, ptr %5) #6
  %6 = load i16, ptr %3, align 2, !tbaa !3
  %7 = call noundef i32 @_Z18ufmt_digitvalue_77Ds(i16 noundef zeroext %6)
  store i32 %7, ptr %5, align 4, !tbaa !7
  %8 = load i32, ptr %5, align 4, !tbaa !7
  %9 = load i32, ptr %4, align 4, !tbaa !7
  %10 = icmp slt i32 %8, %9
  br i1 %10, label %11, label %14

11:                                               ; preds = %2
  %12 = load i32, ptr %5, align 4, !tbaa !7
  %13 = icmp sge i32 %12, 0
  br label %14

14:                                               ; preds = %11, %2
  %15 = phi i1 [ false, %2 ], [ %13, %11 ]
  %16 = zext i1 %15 to i8
  call void @llvm.lifetime.end.p0(i64 4, ptr %5) #6
  ret i8 %16
}