; Function Attrs: mustprogress nofree norecurse nosync nounwind willreturn memory(none) uwtable
define noundef signext range(i8 0, 2) i8 @_Z15ufmt_isdigit_77Dsi(i16 noundef zeroext %0, i32 noundef %1) local_unnamed_addr #0 {
  %3 = add i16 %0, -48
  %or.cond.i = icmp ult i16 %3, 10
  %4 = and i16 %0, -33
  %5 = add i16 %4, -65
  %6 = icmp ult i16 %5, 26
  %or.cond20.i = or i1 %or.cond.i, %6
  br i1 %or.cond20.i, label %7, label %_Z18ufmt_digitvalue_77Ds.exit

7:                                                ; preds = %2
  %8 = zext i16 %0 to i32
  %9 = add nsw i32 %8, -48
  %10 = icmp samesign ugt i16 %0, 64
  %11 = icmp samesign ugt i16 %0, 96
  %.neg.i = select i1 %11, i32 -39, i32 -7
  %.neg18.i = select i1 %10, i32 %.neg.i, i32 0
  %12 = add nsw i32 %9, %.neg18.i
  br label %_Z18ufmt_digitvalue_77Ds.exit

_Z18ufmt_digitvalue_77Ds.exit:                    ; preds = %2, %7
  %.0.i = phi i32 [ %12, %7 ], [ -1, %2 ]
  %13 = icmp slt i32 %.0.i, %1
  %14 = icmp sgt i32 %.0.i, -1
  %15 = and i1 %13, %14
  %16 = zext i1 %15 to i8
  ret i8 %16
}